; Function Attrs: mustprogress noinline uwtable
define internal fastcc noundef range(i32 0, 2) i32 @_ZN13duckdb_brotliL22BrotliEnsureRingBufferEPNS_24BrotliDecoderStateStructE(ptr noundef captures(none) %0) unnamed_addr #10 {
  %2 = getelementptr inbounds nuw i8, ptr %0, i64 136
  %3 = load ptr, ptr %2, align 8, !tbaa !48
  %4 = getelementptr inbounds nuw i8, ptr %0, i64 100
  %5 = load i32, ptr %4, align 4, !tbaa !112
  %6 = getelementptr inbounds nuw i8, ptr %0, i64 768
  %7 = load i32, ptr %6, align 8, !tbaa !127
  %8 = icmp eq i32 %5, %7
  br i1 %8, label %45, label %9

9:                                                ; preds = %1
  %10 = getelementptr inbounds nuw i8, ptr %0, i64 48
  %11 = load ptr, ptr %10, align 8, !tbaa !32
  %12 = getelementptr inbounds nuw i8, ptr %0, i64 64
  %13 = load ptr, ptr %12, align 8, !tbaa !22
  %14 = sext i32 %7 to i64
  %15 = add nsw i64 %14, 542
  %16 = tail call noundef ptr %11(ptr noundef %13, i64 noundef %15)
  store ptr %16, ptr %2, align 8, !tbaa !48
  %17 = icmp eq ptr %16, null
  br i1 %17, label %18, label %19

18:                                               ; preds = %9
  store ptr %3, ptr %2, align 8, !tbaa !48
  br label %45

19:                                               ; preds = %9
  %20 = load i32, ptr %6, align 8, !tbaa !127
  %21 = sext i32 %20 to i64
  %22 = getelementptr i8, ptr %16, i64 %21
  %23 = getelementptr i8, ptr %22, i64 -2
  store i8 0, ptr %23, align 1, !tbaa !49
  %24 = load ptr, ptr %2, align 8, !tbaa !48
  %25 = load i32, ptr %6, align 8, !tbaa !127
  %26 = sext i32 %25 to i64
  %27 = getelementptr i8, ptr %24, i64 %26
  %28 = getelementptr i8, ptr %27, i64 -1
  store i8 0, ptr %28, align 1, !tbaa !49
  %.not = icmp eq ptr %3, null
  br i1 %.not, label %37, label %29

29:                                               ; preds = %19
  %30 = load ptr, ptr %2, align 8, !tbaa !48
  %31 = getelementptr inbounds nuw i8, ptr %0, i64 88
  %32 = load i32, ptr %31, align 8, !tbaa !114
  %33 = sext i32 %32 to i64
  tail call void @llvm.memcpy.p0.p0.i64(ptr align 1 %30, ptr nonnull align 1 %3, i64 %33, i1 false)
  %34 = getelementptr inbounds nuw i8, ptr %0, i64 56
  %35 = load ptr, ptr %34, align 8, !tbaa !21
  %36 = load ptr, ptr %12, align 8, !tbaa !22
  tail call void %35(ptr noundef %36, ptr noundef nonnull %3)
  br label %37

37:                                               ; preds = %29, %19
  %38 = load i32, ptr %6, align 8, !tbaa !127
  store i32 %38, ptr %4, align 4, !tbaa !112
  %39 = add nsw i32 %38, -1
  %40 = getelementptr inbounds nuw i8, ptr %0, i64 104
  store i32 %39, ptr %40, align 8, !tbaa !120
  %41 = load ptr, ptr %2, align 8, !tbaa !48
  %42 = sext i32 %38 to i64
  %43 = getelementptr inbounds i8, ptr %41, i64 %42
  %44 = getelementptr inbounds nuw i8, ptr %0, i64 144
  store ptr %43, ptr %44, align 8, !tbaa !151
  br label %45

45:                                               ; preds = %1, %37, %18
  %.0 = phi i32 [ 0, %18 ], [ 1, %37 ], [ 1, %1 ]
  ret i32 %.0
}